; ModuleID = '62/79.c'
source_filename = "62/79.c"
target datalayout = "e-m:e-p270:32:32-p271:32:32-p272:64:64-i64:64-f80:128-n8:16:32:64-S128"
target triple = "x86_64-pc-linux-gnu"

@.str = private unnamed_addr constant [3 x i8] c"%c\00", align 1

; Function Attrs: noinline nounwind uwtable
define dso_local i32 @main() #0 {
  %1 = alloca i32, align 4
  %2 = alloca [3000 x i8], align 16
  %3 = alloca i8, align 1
  store i32 0, i32* %1, align 4
  %4 = getelementptr inbounds [3000 x i8], [3000 x i8]* %2, i64 0, i64 0
  %5 = call i32 (i8*, ...) bitcast (i32 (...)* @gets to i32 (i8*, ...)*)(i8* %4)
  store i8 0, i8* %3, align 1
  br label %6

6:                                                ; preds = %50, %0
  %7 = load i8, i8* %3, align 1
  %8 = sext i8 %7 to i32
  %9 = getelementptr inbounds [3000 x i8], [3000 x i8]* %2, i64 0, i64 0
  %10 = call i64 @strlen(i8* %9) #3
  %11 = trunc i64 %10 to i32
  %12 = icmp slt i32 %8, %11
  br i1 %12, label %13, label %53

13:                                               ; preds = %6
  %14 = load i8, i8* %3, align 1
  %15 = sext i8 %14 to i64
  %16 = getelementptr inbounds [3000 x i8], [3000 x i8]* %2, i64 0, i64 %15
  %17 = load i8, i8* %16, align 1
  %18 = sext i8 %17 to i32
  %19 = call i32 (i8*, ...) @printf(i8* getelementptr inbounds ([3 x i8], [3 x i8]* @.str, i64 0, i64 0), i32 %18)
  %20 = load i8, i8* %3, align 1
  %21 = sext i8 %20 to i64
  %22 = getelementptr inbounds [3000 x i8], [3000 x i8]* %2, i64 0, i64 %21
  %23 = load i8, i8* %22, align 1
  %24 = sext i8 %23 to i32
  %25 = icmp eq i32 %24, 32
  br i1 %25, label %26, label %49

26:                                               ; preds = %13
  br label %27

27:                                               ; preds = %45, %26
  %28 = load i8, i8* %3, align 1
  %29 = sext i8 %28 to i32
  %30 = getelementptr inbounds [3000 x i8], [3000 x i8]* %2, i64 0, i64 0
  %31 = call i64 @strlen(i8* %30) #3
  %32 = trunc i64 %31 to i32
  %33 = icmp slt i32 %29, %32
  br i1 %33, label %34, label %48

34:                                               ; preds = %27
  %35 = load i8, i8* %3, align 1
  %36 = sext i8 %35 to i32
  %37 = add nsw i32 %36, 1
  %38 = sext i32 %37 to i64
  %39 = getelementptr inbounds [3000 x i8], [3000 x i8]* %2, i64 0, i64 %38
  %40 = load i8, i8* %39, align 1
  %41 = sext i8 %40 to i32
  %42 = icmp ne i32 %41, 32
  br i1 %42, label %43, label %44

43:                                               ; preds = %34
  br label %48

44:                                               ; preds = %34
  br label %45

45:                                               ; preds = %44
  %46 = load i8, i8* %3, align 1
  %47 = add i8 %46, 1
  store i8 %47, i8* %3, align 1
  br label %27

48:                                               ; preds = %43, %27
  br label %49

49:                                               ; preds = %48, %13
  br label %50

50:                                               ; preds = %49
  %51 = load i8, i8* %3, align 1
  %52 = add i8 %51, 1
  store i8 %52, i8* %3, align 1
  br label %6

53:                                               ; preds = %6
  %54 = load i32, i32* %1, align 4
  ret i32 %54
}

declare dso_local i32 @gets(...) #1

; Function Attrs: nounwind readonly
declare dso_local i64 @strlen(i8*) #2

declare dso_local i32 @printf(i8*, ...) #1


!llvm.module.flags = !{!0}
!llvm.ident = !{!1}

!0 = !{i32 1, !"wchar_size", i32 4}
!1 = !{!"clang version 10.0.0-4ubuntu1 "}
